; Function Attrs: mustprogress uwtable
define hidden noundef zeroext i1 @_ZN5osgeo4proj11FileManager6renameEP6pj_ctxPKcS5_(ptr noundef %0, ptr noundef %1, ptr noundef %2) local_unnamed_addr #0 align 2 {
  %4 = getelementptr inbounds nuw i8, ptr %0, i64 296
  %5 = load ptr, ptr %4, align 8, !tbaa !91
  %.not = icmp eq ptr %5, null
  br i1 %.not, label %11, label %6

6:                                                ; preds = %3
  %7 = getelementptr inbounds nuw i8, ptr %0, i64 304
  %8 = load ptr, ptr %7, align 8, !tbaa !80
  %9 = tail call noundef i32 %5(ptr noundef nonnull %0, ptr noundef %1, ptr noundef %2, ptr noundef %8)
  %10 = icmp ne i32 %9, 0
  br label %14

11:                                               ; preds = %3
  %12 = tail call i32 @rename(ptr noundef %1, ptr noundef %2) #30
  %13 = icmp eq i32 %12, 0
  br label %14

14:                                               ; preds = %11, %6
  %.0 = phi i1 [ %10, %6 ], [ %13, %11 ]
  ret i1 %.0
}